; Function Attrs: nounwind uwtable
define ptr @l_Lean_Meta_isRflProof(ptr noundef %0, ptr noundef %1, ptr noundef %2, ptr noundef %3, ptr noundef %4, ptr noundef %5) local_unnamed_addr #1 {
  %7 = ptrtoint ptr %0 to i64
  %8 = and i64 %7, 1
  %.not.i23 = icmp eq i64 %8, 0
  br i1 %.not.i23, label %12, label %9

9:                                                ; preds = %6
  %10 = lshr i64 %7, 1
  %11 = trunc i64 %10 to i32
  br label %lean_obj_tag.exit

12:                                               ; preds = %6
  %13 = getelementptr i8, ptr %0, i64 4
  %.val.i = load i32, ptr %13, align 4
  %14 = lshr i32 %.val.i, 24
  br label %lean_obj_tag.exit

lean_obj_tag.exit:                                ; preds = %9, %12
  %.0.i = phi i32 [ %11, %9 ], [ %14, %12 ]
  %15 = icmp eq i32 %.0.i, 4
  br i1 %15, label %16, label %37

16:                                               ; preds = %lean_obj_tag.exit
  %17 = getelementptr inbounds nuw i8, ptr %0, i64 8
  %18 = load ptr, ptr %17, align 8, !tbaa !9
  %19 = ptrtoint ptr %18 to i64
  %20 = and i64 %19, 1
  %.not = icmp eq i64 %20, 0
  br i1 %.not, label %21, label %lean_inc.exit

21:                                               ; preds = %16
  %.val.i24 = load i32, ptr %18, align 4, !tbaa !4
  %22 = icmp sgt i32 %.val.i24, 0
  br i1 %22, label %23, label %25, !prof !11

23:                                               ; preds = %21
  %24 = add nuw i32 %.val.i24, 1
  store i32 %24, ptr %18, align 4, !tbaa !4
  br label %lean_inc.exit

25:                                               ; preds = %21
  %.not.i25 = icmp eq i32 %.val.i24, 0
  br i1 %.not.i25, label %lean_inc.exit, label %26

26:                                               ; preds = %25
  tail call void @lean_inc_ref_cold(ptr noundef nonnull %18) #6
  br label %lean_inc.exit

lean_inc.exit:                                    ; preds = %26, %25, %23, %16
  br i1 %.not.i23, label %27, label %lean_dec.exit

27:                                               ; preds = %lean_inc.exit
  %28 = load i32, ptr %0, align 4, !tbaa !4
  %29 = icmp sgt i32 %28, 1
  br i1 %29, label %30, label %32, !prof !11

30:                                               ; preds = %27
  %31 = add nsw i32 %28, -1
  store i32 %31, ptr %0, align 4, !tbaa !4
  br label %lean_dec.exit

32:                                               ; preds = %27
  %.not.i = icmp eq i32 %28, 0
  br i1 %.not.i, label %lean_dec.exit, label %33

33:                                               ; preds = %32
  tail call void @lean_dec_ref_cold(ptr noundef nonnull %0) #6
  br label %lean_dec.exit

lean_dec.exit:                                    ; preds = %33, %32, %30, %lean_inc.exit
  tail call void @lean_inc_heartbeat() #6
  %34 = tail call noalias ptr @mi_malloc_small(i64 noundef 32) #6
  %35 = icmp eq ptr %34, null
  br i1 %35, label %36, label %lean_alloc_closure.exit

36:                                               ; preds = %lean_dec.exit
  tail call void @lean_internal_panic_out_of_memory() #7
  unreachable

37:                                               ; preds = %lean_obj_tag.exit
  tail call void @lean_inc_heartbeat() #6
  %38 = tail call noalias ptr @mi_malloc_small(i64 noundef 32) #6
  %39 = icmp eq ptr %38, null
  br i1 %39, label %40, label %lean_alloc_closure.exit

40:                                               ; preds = %37
  tail call void @lean_internal_panic_out_of_memory() #7
  unreachable

lean_alloc_closure.exit:                          ; preds = %37, %lean_dec.exit
  %.sink39 = phi ptr [ %34, %lean_dec.exit ], [ %38, %37 ]
  %l_Lean_Meta_isRflProof___lambda__1.sink = phi ptr [ @l_Lean_Meta_isRflProof___lambda__2___boxed, %lean_dec.exit ], [ @l_Lean_Meta_isRflProof___lambda__1, %37 ]
  %.sink28 = phi ptr [ %18, %lean_dec.exit ], [ %0, %37 ]
  %41 = getelementptr inbounds nuw i8, ptr %.sink39, i64 4
  store i32 1, ptr %.sink39, align 4, !tbaa !4
  store i32 -184549344, ptr %41, align 4
  %42 = getelementptr inbounds nuw i8, ptr %.sink39, i64 8
  store ptr %l_Lean_Meta_isRflProof___lambda__1.sink, ptr %42, align 8, !tbaa !9
  %43 = getelementptr inbounds nuw i8, ptr %.sink39, i64 16
  store i16 6, ptr %43, align 8, !tbaa !16
  %44 = getelementptr inbounds nuw i8, ptr %.sink39, i64 18
  store i16 1, ptr %44, align 2, !tbaa !16
  %45 = getelementptr inbounds nuw i8, ptr %.sink39, i64 24
  store ptr %.sink28, ptr %45, align 8, !tbaa !9
  %46 = tail call ptr @l_Lean_withoutExporting___at_Lean_Meta_isRflProof___spec__1(ptr noundef nonnull %.sink39, ptr noundef %1, ptr noundef %2, ptr noundef %3, ptr noundef %4, ptr noundef %5)
  ret ptr %46
}